Certificate:
    Data:
        Version: 3 (0x2)
        Serial Number:
            46:f7:43:78:91:24:bc:19:66:7f:0e:84:08:c1:f1:69
        Signature Algorithm: sha256WithRSAEncryption
        Issuer: CN=vpn.f5labs.dev
        Validity
            Not Before: Jan 14 02:51:17 2021 GMT
            Not After : Apr 19 02:51:17 2023 GMT
        Subject: CN=vpn.f5labs.dev
        Subject Public Key Info:
            Public Key Algorithm: rsaEncryption
                RSA Public-Key: (2048 bit)
                Modulus:
                    00:de:42:c3:78:d2:f2:96:f4:03:78:ed:ca:45:19:
                    73:74:28:88:69:73:48:10:c7:12:9c:22:3e:09:41:
                    7b:87:d5:fc:b6:ef:11:4d:15:97:ca:d9:7e:b2:90:
                    aa:97:ec:5f:56:2b:76:60:e4:e4:25:e6:b5:96:7a:
                    d2:80:86:cc:fc:41:dc:45:6d:ae:1a:78:f0:21:54:
                    79:61:78:22:f1:3d:54:f9:d9:13:d3:0e:4c:38:71:
                    65:85:6a:f2:22:31:d6:59:f5:51:82:18:23:ea:d5:
                    13:f5:b7:43:5d:a7:f7:9e:e3:59:8f:ea:cc:6a:a2:
                    89:e8:de:79:d9:57:7e:03:a5:2d:f8:3e:19:ac:b8:
                    3c:2f:cf:4a:a7:62:b0:11:22:b0:ec:9b:5e:38:cb:
                    db:f0:b3:d4:47:7e:7d:97:42:6b:91:36:2e:e5:be:
                    9c:9a:9c:9b:c2:14:99:c4:49:a9:0d:1a:98:5b:b7:
                    a1:37:03:82:be:9f:e5:1e:43:b1:08:f8:46:6f:f3:
                    77:13:11:5a:9f:d2:d4:f9:c7:92:e4:55:75:27:35:
                    18:55:5d:ef:87:b0:fa:46:f4:d1:c4:a5:4d:f8:e2:
                    2a:b8:ba:22:e7:57:ec:fe:93:88:61:e4:e9:ec:c3:
                    c1:52:4d:88:61:a5:e4:8c:4b:5a:99:01:6c:6c:ff:
                    d9:61
                Exponent: 65537 (0x10001)
        X509v3 extensions:
            X509v3 Basic Constraints: 
                CA:FALSE
            X509v3 Subject Key Identifier: 
                65:2A:ED:A2:C4:CF:21:2B:EE:CD:7E:53:D8:EE:DA:77:AD:FF:56:46
            X509v3 Authority Key Identifier: 
                keyid:FC:66:B7:57:58:8F:93:B2:3A:61:1E:43:78:D4:2E:43:EF:5E:E4:35
                DirName:/CN=vpn.f5labs.dev
                serial:51:9C:76:87:21:63:D4:D3:FF:1E:54:B2:7B:8D:DF:13:1E:F5:6A:AC

            X509v3 Extended Key Usage: 
                TLS Web Server Authentication
            X509v3 Key Usage: 
                Digital Signature, Key Encipherment
            X509v3 Subject Alternative Name: 
                DNS:vpn.f5labs.dev
    Signature Algorithm: sha256WithRSAEncryption
         21:d9:86:a5:ca:99:07:2c:ef:17:b5:45:ba:ae:4f:a0:a8:c6:
         81:ca:b4:b1:6c:45:b8:f1:23:5a:9c:4a:e1:ee:9a:b6:34:b0:
         7d:d2:69:4d:54:69:7a:e4:1f:11:0a:fd:73:6e:4a:e5:cf:35:
         28:09:93:2c:7c:ff:9d:53:8d:3a:e4:cf:cb:08:21:a2:be:ae:
         c5:ed:f6:d3:43:c4:92:3c:5a:65:86:c3:26:86:b7:0f:8f:24:
         08:38:d4:b2:59:d0:dc:8e:ed:ca:ac:65:06:9e:84:0b:bb:13:
         ef:1c:e8:94:63:a7:e4:ff:43:d0:ed:8f:ab:bf:63:0f:09:b2:
         87:17:24:ec:c2:9e:2d:a5:fa:70:d8:17:16:ab:46:39:86:84:
         bb:90:63:3f:3b:55:22:30:ac:ec:c7:1a:b0:19:af:72:9e:5a:
         a2:64:39:66:e4:79:cc:14:d6:9d:a1:32:9a:0f:2a:42:e2:32:
         4f:f4:3d:65:bf:9f:8c:6f:1b:d2:a5:22:e3:34:ce:84:c0:43:
         a6:c9:e0:7f:6f:fc:24:5a:02:b1:41:bc:30:e2:0c:2f:48:74:
         c0:f1:71:2b:15:e4:8c:cc:c9:da:e0:ba:b8:f9:b4:12:a2:0b:
         5a:c3:2a:7b:84:41:95:17:31:9d:7c:6d:50:cb:15:9f:bf:a2:
         b1:be:cf:bf
-----BEGIN CERTIFICATE-----
MIIDfTCCAmWgAwIBAgIQRvdDeJEkvBlmfw6ECMHxaTANBgkqhkiG9w0BAQsFADAZ
MRcwFQYDVQQDDA52cG4uZjVsYWJzLmRldjAeFw0yMTAxMTQwMjUxMTdaFw0yMzA0
MTkwMjUxMTdaMBkxFzAVBgNVBAMMDnZwbi5mNWxhYnMuZGV2MIIBIjANBgkqhkiG
9w0BAQEFAAOCAQ8AMIIBCgKCAQEA3kLDeNLylvQDeO3KRRlzdCiIaXNIEMcSnCI+
CUF7h9X8tu8RTRWXytl+spCql+xfVit2YOTkJea1lnrSgIbM/EHcRW2uGnjwIVR5
YXgi8T1U+dkT0w5MOHFlhWryIjHWWfVRghgj6tUT9bdDXaf3nuNZj+rMaqKJ6N55
2Vd+A6Ut+D4ZrLg8L89Kp2KwESKw7JteOMvb8LPUR359l0JrkTYu5b6cmpybwhSZ
xEmpDRqYW7ehNwOCvp/lHkOxCPhGb/N3ExFan9LU+ceS5FV1JzUYVV3vh7D6RvTR
xKVN+OIquLoi51fs/pOIYeTp7MPBUk2IYaXkjEtamQFsbP/ZYQIDAQABo4HAMIG9
MAkGA1UdEwQCMAAwHQYDVR0OBBYEFGUq7aLEzyEr7s1+U9ju2net/1ZGMFQGA1Ud
IwRNMEuAFPxmt1dYj5OyOmEeQ3jULkPvXuQ1oR2kGzAZMRcwFQYDVQQDDA52cG4u
ZjVsYWJzLmRldoIUUZx2hyFj1NP/HlSye43fEx71aqwwEwYDVR0lBAwwCgYIKwYB
BQUHAwEwCwYDVR0PBAQDAgWgMBkGA1UdEQQSMBCCDnZwbi5mNWxhYnMuZGV2MA0G
CSqGSIb3DQEBCwUAA4IBAQAh2YalypkHLO8XtUW6rk+gqMaByrSxbEW48SNanErh
7pq2NLB90mlNVGl65B8RCv1zbkrlzzUoCZMsfP+dU4065M/LCCGivq7F7fbTQ8SS
PFplhsMmhrcPjyQIONSyWdDcju3KrGUGnoQLuxPvHOiUY6fk/0PQ7Y+rv2MPCbKH
FyTswp4tpfpw2BcWq0Y5hoS7kGM/O1UiMKzsxxqwGa9ynlqiZDlm5HnMFNadoTKa
DypC4jJP9D1lv5+MbxvSpSLjNM6EwEOmyeB/b/wkWgKxQbww4gwvSHTA8XErFeSM
zMna4Lq4+bQSogtawyp7hEGVFzGdfG1QyxWfv6Kxvs+/
-----END CERTIFICATE-----
