Certificate:
    Data:
        Version: 3 (0x2)
        Serial Number:
            3b:80:8e:a6:3a:d9:39:e4:ff:e0:0f:04:0f:bb:ad:dd
        Signature Algorithm: sha256WithRSAEncryption
        Issuer: CN=vpn.f5labs.dev
        Validity
            Not Before: Jan 14 02:53:35 2021 GMT
            Not After : Apr 19 02:53:35 2023 GMT
        Subject: CN=client.f5labs.dev
        Subject Public Key Info:
            Public Key Algorithm: rsaEncryption
                RSA Public-Key: (2048 bit)
                Modulus:
                    00:d0:db:2a:46:68:84:d4:9c:0a:a3:33:40:37:f2:
                    f4:60:dd:7a:e5:5d:c0:c2:49:35:bb:9c:18:98:8c:
                    79:41:42:d9:2d:c4:e7:83:95:ef:65:ae:9c:a5:80:
                    3b:be:22:85:7a:38:81:70:64:0d:49:88:77:87:6a:
                    9d:12:6c:17:28:84:55:97:b4:f7:b3:fd:ec:dc:b8:
                    16:43:01:3c:06:f3:3b:f7:c6:c0:00:8b:c8:bd:03:
                    1f:cf:ef:3b:fa:a7:7e:4f:3a:ec:15:e3:b5:b7:ed:
                    3f:38:9f:3d:8c:4f:02:4e:d8:b6:85:1d:2c:f1:37:
                    f8:b6:3d:08:14:6f:57:5d:17:3f:40:4b:e3:05:0d:
                    39:34:7f:4e:b4:e7:0c:e1:95:56:ae:2b:7b:ab:d4:
                    26:69:5e:27:c3:81:58:cb:79:40:5e:d5:70:52:97:
                    fd:8d:8f:89:3f:61:a1:ff:5f:54:05:e9:6c:54:e4:
                    f4:ca:ac:d4:3a:fa:78:dd:27:e8:68:c4:3c:89:54:
                    3d:92:7d:f8:aa:64:d3:3b:e0:b5:c1:95:10:58:78:
                    87:8f:c3:4c:37:3d:a0:76:36:a8:22:00:f2:c2:fc:
                    19:6e:7f:18:41:fe:70:71:e3:c5:ef:96:da:d9:b8:
                    80:5f:1b:98:4f:81:f0:c0:4c:9f:38:d1:bf:1e:07:
                    7e:e7
                Exponent: 65537 (0x10001)
        X509v3 extensions:
            X509v3 Basic Constraints: 
                CA:FALSE
            X509v3 Subject Key Identifier: 
                FC:2C:7A:13:E6:8B:6E:2E:6B:B3:D9:47:4C:A6:4E:18:11:EA:26:4B
            X509v3 Authority Key Identifier: 
                keyid:FC:66:B7:57:58:8F:93:B2:3A:61:1E:43:78:D4:2E:43:EF:5E:E4:35
                DirName:/CN=vpn.f5labs.dev
                serial:51:9C:76:87:21:63:D4:D3:FF:1E:54:B2:7B:8D:DF:13:1E:F5:6A:AC

            X509v3 Extended Key Usage: 
                TLS Web Client Authentication
            X509v3 Key Usage: 
                Digital Signature
    Signature Algorithm: sha256WithRSAEncryption
         57:33:02:49:cb:42:0f:82:7a:d8:bb:54:d8:36:d1:ad:4d:a0:
         8f:5a:3f:7d:49:0f:4b:2f:22:bd:08:5c:9e:78:79:e9:8c:0e:
         1a:d9:54:08:58:98:23:b6:0b:53:7d:f8:4c:fe:63:63:3d:74:
         74:d8:3f:84:f4:91:4a:65:11:41:cd:6b:1b:ea:d2:50:df:f0:
         c3:d5:07:88:c2:7d:45:fb:9a:59:56:02:c5:17:f5:13:86:e2:
         a8:db:1c:61:33:f3:53:26:51:a6:a2:9e:9d:4a:71:b1:01:bd:
         0e:70:2a:a1:5d:7c:37:eb:81:40:f3:0b:c6:ce:be:39:83:2b:
         53:d0:0f:54:51:90:31:3c:9e:ba:ec:d9:46:6c:98:ab:b9:ca:
         7c:56:71:c6:74:0b:b5:30:98:8d:e7:eb:e4:0d:cf:f4:43:28:
         09:63:f5:12:67:4a:1d:0f:cf:61:4d:c7:2e:6e:21:9f:09:62:
         06:1f:16:8b:a0:8d:2f:fa:a5:16:52:41:57:29:ac:99:4e:a4:
         4a:0f:76:4a:80:9b:88:1f:05:e9:9b:90:da:75:f3:bc:fa:c5:
         86:b2:70:95:05:24:74:50:b2:3a:ab:f7:05:84:22:93:11:d5:
         c9:00:48:4c:40:84:d4:7b:30:17:35:9b:02:d9:a3:79:c6:ab:
         16:fe:b4:de
-----BEGIN CERTIFICATE-----
MIIDZTCCAk2gAwIBAgIQO4COpjrZOeT/4A8ED7ut3TANBgkqhkiG9w0BAQsFADAZ
MRcwFQYDVQQDDA52cG4uZjVsYWJzLmRldjAeFw0yMTAxMTQwMjUzMzVaFw0yMzA0
MTkwMjUzMzVaMBwxGjAYBgNVBAMMEWNsaWVudC5mNWxhYnMuZGV2MIIBIjANBgkq
hkiG9w0BAQEFAAOCAQ8AMIIBCgKCAQEA0NsqRmiE1JwKozNAN/L0YN165V3Awkk1
u5wYmIx5QULZLcTng5XvZa6cpYA7viKFejiBcGQNSYh3h2qdEmwXKIRVl7T3s/3s
3LgWQwE8BvM798bAAIvIvQMfz+87+qd+TzrsFeO1t+0/OJ89jE8CTti2hR0s8Tf4
tj0IFG9XXRc/QEvjBQ05NH9OtOcM4ZVWrit7q9QmaV4nw4FYy3lAXtVwUpf9jY+J
P2Gh/19UBelsVOT0yqzUOvp43SfoaMQ8iVQ9kn34qmTTO+C1wZUQWHiHj8NMNz2g
djaoIgDywvwZbn8YQf5wcePF75ba2biAXxuYT4HwwEyfONG/Hgd+5wIDAQABo4Gl
MIGiMAkGA1UdEwQCMAAwHQYDVR0OBBYEFPwsehPmi24ua7PZR0ymThgR6iZLMFQG
A1UdIwRNMEuAFPxmt1dYj5OyOmEeQ3jULkPvXuQ1oR2kGzAZMRcwFQYDVQQDDA52
cG4uZjVsYWJzLmRldoIUUZx2hyFj1NP/HlSye43fEx71aqwwEwYDVR0lBAwwCgYI
KwYBBQUHAwIwCwYDVR0PBAQDAgeAMA0GCSqGSIb3DQEBCwUAA4IBAQBXMwJJy0IP
gnrYu1TYNtGtTaCPWj99SQ9LLyK9CFyeeHnpjA4a2VQIWJgjtgtTffhM/mNjPXR0
2D+E9JFKZRFBzWsb6tJQ3/DD1QeIwn1F+5pZVgLFF/UThuKo2xxhM/NTJlGmop6d
SnGxAb0OcCqhXXw364FA8wvGzr45gytT0A9UUZAxPJ667NlGbJirucp8VnHGdAu1
MJiN5+vkDc/0QygJY/USZ0odD89hTccubiGfCWIGHxaLoI0v+qUWUkFXKayZTqRK
D3ZKgJuIHwXpm5DadfO8+sWGsnCVBSR0ULI6q/cFhCKTEdXJAEhMQITUezAXNZsC
2aN5xqsW/rTe
-----END CERTIFICATE-----
